target datalayout = "e-m:e-p270:32:32-p271:32:32-p272:64:64-i64:64-i128:128-f80:128-n8:16:32:64-S128"
target triple = "x86_64-pc-linux-gnu"

%class.QString = type { ptr }
%class.QChar = type { i16 }
%struct.QLatin1Char = type { i8 }

@_ZN19GLExtensionsManager15glewInitializedE = global i8 0, align 1
@glewExperimental = external global i8, align 1
@.str.2 = private unnamed_addr constant [32 x i8] c"GLEW initialization failed: %1\0A\00", align 1
@_ZTI11MLException = linkonce_odr constant { ptr, ptr, ptr } { ptr getelementptr inbounds (ptr, ptr @_ZTVN10__cxxabiv120__si_class_type_infoE, i64 2), ptr @_ZTS11MLException, ptr @_ZTISt9exception }, comdat, align 8

; Function Attrs: mustprogress nounwind uwtable
define linkonce_odr noundef zeroext i16 @_ZNK11QLatin1Char7unicodeEv(ptr noundef nonnull align 1 dereferenceable(1) %0) #0 comdat align 2 {
  %2 = alloca ptr, align 8
  store ptr %0, ptr %2, align 8
  %3 = load ptr, ptr %2, align 8
  %4 = getelementptr inbounds %struct.QLatin1Char, ptr %3, i32 0, i32 0
  %5 = load i8, ptr %4, align 1
  %6 = zext i8 %5 to i16
  ret i16 %6
}

; Function Attrs: mustprogress nounwind uwtable
define linkonce_odr void @_ZN5QCharC2E11QLatin1Char(ptr noundef nonnull align 2 dereferenceable(2) %0, i8 %1) unnamed_addr #0 comdat align 2 {
  %3 = alloca %struct.QLatin1Char, align 1
  %4 = alloca ptr, align 8
  %5 = getelementptr inbounds %struct.QLatin1Char, ptr %3, i32 0, i32 0
  store i8 %1, ptr %5, align 1
  store ptr %0, ptr %4, align 8
  %6 = load ptr, ptr %4, align 8
  %7 = getelementptr inbounds %class.QChar, ptr %6, i32 0, i32 0
  %8 = call noundef zeroext i16 @_ZNK11QLatin1Char7unicodeEv(ptr noundef nonnull align 1 dereferenceable(1) %3) #9
  store i16 %8, ptr %7, align 2
  ret void
}

; Function Attrs: mustprogress nounwind uwtable
define linkonce_odr void @_ZN11QLatin1CharC2Ec(ptr noundef nonnull align 1 dereferenceable(1) %0, i8 noundef signext %1) unnamed_addr #0 comdat align 2 {
  %3 = alloca ptr, align 8
  %4 = alloca i8, align 1
  store ptr %0, ptr %3, align 8
  store i8 %1, ptr %4, align 1
  %5 = load ptr, ptr %3, align 8
  %6 = getelementptr inbounds %struct.QLatin1Char, ptr %5, i32 0, i32 0
  %7 = load i8, ptr %4, align 1
  store i8 %7, ptr %6, align 1
  ret void
}

; Function Attrs: mustprogress uwtable
define void @_ZN19GLExtensionsManager22initializeGLextensionsEv() #1 align 2 personality ptr @__gxx_personality_v0 {
  %1 = alloca i32, align 4
  %2 = alloca %class.QString, align 8
  %3 = alloca %class.QString, align 8
  %4 = alloca ptr, align 8
  %5 = alloca i32, align 4
  %6 = alloca %class.QString, align 8
  %7 = alloca %class.QChar, align 2
  %8 = alloca %struct.QLatin1Char, align 1
  %9 = alloca i1, align 1
  %10 = load i8, ptr @_ZN19GLExtensionsManager15glewInitializedE, align 1
  %11 = trunc i8 %10 to i1
  br i1 %11, label %56, label %12

12:                                               ; preds = %0
  store i8 1, ptr @glewExperimental, align 1
  %13 = call i32 @glewInit()
  store i32 %13, ptr %1, align 4
  %14 = load i32, ptr %1, align 4
  %15 = icmp eq i32 %14, 0
  br i1 %15, label %19, label %16

16:                                               ; preds = %12
  %17 = load i32, ptr %1, align 4
  %18 = icmp eq i32 %17, 4
  br i1 %18, label %19, label %20

19:                                               ; preds = %16, %12
  store i8 1, ptr @_ZN19GLExtensionsManager15glewInitializedE, align 1
  br label %55

20:                                               ; preds = %16
  store i1 true, ptr %9, align 1
  %21 = call ptr @__cxa_allocate_exception(i64 24) #9
  invoke void @_ZN7QStringC2EPKc(ptr noundef nonnull align 8 dereferenceable(8) %3, ptr noundef @.str.2)
          to label %22 unwind label %33

22:                                               ; preds = %20
  %23 = load i32, ptr %1, align 4
  %24 = invoke ptr @glewGetErrorString(i32 noundef %23)
          to label %25 unwind label %37

25:                                               ; preds = %22
  invoke void @_ZN7QStringC2EPKc(ptr noundef nonnull align 8 dereferenceable(8) %6, ptr noundef %24)
          to label %26 unwind label %37

26:                                               ; preds = %25
  call void @_ZN11QLatin1CharC2Ec(ptr noundef nonnull align 1 dereferenceable(1) %8, i8 noundef signext 32) #9
  %27 = getelementptr inbounds %struct.QLatin1Char, ptr %8, i32 0, i32 0
  %28 = load i8, ptr %27, align 1
  call void @_ZN5QCharC2E11QLatin1Char(ptr noundef nonnull align 2 dereferenceable(2) %7, i8 %28) #9
  %29 = getelementptr inbounds %class.QChar, ptr %7, i32 0, i32 0
  %30 = load i16, ptr %29, align 2
  invoke void @_ZNK7QString3argERKS_i5QChar(ptr dead_on_unwind writable sret(%class.QString) align 8 %2, ptr noundef nonnull align 8 dereferenceable(8) %3, ptr noundef nonnull align 8 dereferenceable(8) %6, i32 noundef 0, i16 %30)
          to label %31 unwind label %41

31:                                               ; preds = %26
  invoke void @_ZN11MLExceptionC2ERK7QString(ptr noundef nonnull align 8 dereferenceable(24) %21, ptr noundef nonnull align 8 dereferenceable(8) %2)
          to label %32 unwind label %45

32:                                               ; preds = %31
  store i1 false, ptr %9, align 1
  invoke void @__cxa_throw(ptr %21, ptr @_ZTI11MLException, ptr @_ZN11MLExceptionD2Ev) #10
          to label %62 unwind label %45

33:                                               ; preds = %20
  %34 = landingpad { ptr, i32 }
          cleanup
  %35 = extractvalue { ptr, i32 } %34, 0
  store ptr %35, ptr %4, align 8
  %36 = extractvalue { ptr, i32 } %34, 1
  store i32 %36, ptr %5, align 4
  br label %51

37:                                               ; preds = %25, %22
  %38 = landingpad { ptr, i32 }
          cleanup
  %39 = extractvalue { ptr, i32 } %38, 0
  store ptr %39, ptr %4, align 8
  %40 = extractvalue { ptr, i32 } %38, 1
  store i32 %40, ptr %5, align 4
  br label %50

41:                                               ; preds = %26
  %42 = landingpad { ptr, i32 }
          cleanup
  %43 = extractvalue { ptr, i32 } %42, 0
  store ptr %43, ptr %4, align 8
  %44 = extractvalue { ptr, i32 } %42, 1
  store i32 %44, ptr %5, align 4
  br label %49

45:                                               ; preds = %32, %31
  %46 = landingpad { ptr, i32 }
          cleanup
  %47 = extractvalue { ptr, i32 } %46, 0
  store ptr %47, ptr %4, align 8
  %48 = extractvalue { ptr, i32 } %46, 1
  store i32 %48, ptr %5, align 4
  call void @_ZN7QStringD2Ev(ptr noundef nonnull align 8 dereferenceable(8) %2) #9
  br label %49

49:                                               ; preds = %45, %41
  call void @_ZN7QStringD2Ev(ptr noundef nonnull align 8 dereferenceable(8) %6) #9
  br label %50

50:                                               ; preds = %49, %37
  call void @_ZN7QStringD2Ev(ptr noundef nonnull align 8 dereferenceable(8) %3) #9
  br label %51

51:                                               ; preds = %50, %33
  %52 = load i1, ptr %9, align 1
  br i1 %52, label %53, label %54

53:                                               ; preds = %51
  call void @__cxa_free_exception(ptr %21) #9
  br label %54

54:                                               ; preds = %53, %51
  br label %57

55:                                               ; preds = %19
  br label %56

56:                                               ; preds = %55, %0
  ret void

57:                                               ; preds = %54
  %58 = load ptr, ptr %4, align 8
  %59 = load i32, ptr %5, align 4
  %60 = insertvalue { ptr, i32 } poison, ptr %58, 0
  %61 = insertvalue { ptr, i32 } %60, i32 %59, 1
  resume { ptr, i32 } %61

62:                                               ; preds = %32
  unreachable
}