; Function Attrs: mustprogress uwtable
define void @_ZN19GLExtensionsManager22initializeGLextensionsEv() local_unnamed_addr #1 align 2 personality ptr @__gxx_personality_v0 {
  %1 = alloca %class.QString, align 8
  %2 = alloca %class.QString, align 8
  %3 = alloca %class.QString, align 8
  %4 = load i8, ptr @_ZN19GLExtensionsManager15glewInitializedE, align 1
  %5 = and i8 %4, 1
  %.not = icmp eq i8 %5, 0
  br i1 %.not, label %6, label %27

6:                                                ; preds = %0
  store i8 1, ptr @glewExperimental, align 1
  %7 = tail call i32 @glewInit()
  %8 = and i32 %7, -5
  %or.cond = icmp eq i32 %8, 0
  br i1 %or.cond, label %9, label %10

9:                                                ; preds = %6
  store i8 1, ptr @_ZN19GLExtensionsManager15glewInitializedE, align 1
  br label %27

10:                                               ; preds = %6
  %11 = tail call ptr @__cxa_allocate_exception(i64 24) #10
  %12 = invoke noundef ptr @_ZN7QString16fromAscii_helperEPKci(ptr noundef nonnull @.str.2, i32 noundef 31)
          to label %13 unwind label %.thread

13:                                               ; preds = %10
  store ptr %12, ptr %2, align 8
  %14 = invoke ptr @glewGetErrorString(i32 noundef %7)
          to label %15 unwind label %.thread21

15:                                               ; preds = %13
  invoke void @_ZN7QStringC2EPKc(ptr noundef nonnull align 8 dereferenceable(8) %3, ptr noundef %14)
          to label %16 unwind label %.thread21

16:                                               ; preds = %15
  invoke void @_ZNK7QString3argERKS_i5QChar(ptr dead_on_unwind nonnull writable sret(%class.QString) align 8 %1, ptr noundef nonnull align 8 dereferenceable(8) %2, ptr noundef nonnull align 8 dereferenceable(8) %3, i32 noundef 0, i16 32)
          to label %17 unwind label %21

17:                                               ; preds = %16
  invoke void @_ZN11MLExceptionC2ERK7QString(ptr noundef nonnull align 8 dereferenceable(24) %11, ptr noundef nonnull align 8 dereferenceable(8) %1)
          to label %18 unwind label %23

18:                                               ; preds = %17
  invoke void @__cxa_throw(ptr nonnull %11, ptr nonnull @_ZTI11MLException, ptr nonnull @_ZN11MLExceptionD2Ev) #11
          to label %29 unwind label %23

.thread:                                          ; preds = %10
  %19 = landingpad { ptr, i32 }
          cleanup
  br label %26

.thread21:                                        ; preds = %13, %15
  %20 = landingpad { ptr, i32 }
          cleanup
  call void @_ZN7QStringD2Ev(ptr noundef nonnull align 8 dereferenceable(8) %2) #10
  br label %26

21:                                               ; preds = %16
  %22 = landingpad { ptr, i32 }
          cleanup
  br label %25

23:                                               ; preds = %18, %17
  %.0 = phi i1 [ false, %18 ], [ true, %17 ]
  %24 = landingpad { ptr, i32 }
          cleanup
  call void @_ZN7QStringD2Ev(ptr noundef nonnull align 8 dereferenceable(8) %1) #10
  br label %25

25:                                               ; preds = %21, %23
  %.pn = phi { ptr, i32 } [ %24, %23 ], [ %22, %21 ]
  %.1 = phi i1 [ %.0, %23 ], [ true, %21 ]
  call void @_ZN7QStringD2Ev(ptr noundef nonnull align 8 dereferenceable(8) %3) #10
  call void @_ZN7QStringD2Ev(ptr noundef nonnull align 8 dereferenceable(8) %2) #10
  br i1 %.1, label %26, label %28

26:                                               ; preds = %.thread21, %.thread, %25
  %.pn.pn.pn20 = phi { ptr, i32 } [ %19, %.thread ], [ %.pn, %25 ], [ %20, %.thread21 ]
  call void @__cxa_free_exception(ptr %11) #10
  br label %28

27:                                               ; preds = %9, %0
  ret void

28:                                               ; preds = %25, %26
  %.pn.pn.pn19 = phi { ptr, i32 } [ %.pn, %25 ], [ %.pn.pn.pn20, %26 ]
  resume { ptr, i32 } %.pn.pn.pn19

29:                                               ; preds = %18
  unreachable
}